target datalayout = "e-m:e-p270:32:32-p271:32:32-p272:64:64-i64:64-i128:128-f80:128-n8:16:32:64-S128"
target triple = "x86_64-pc-linux-gnu"

%struct.Vec_Int_t_ = type { i32, i32, ptr }
%struct.Vec_Wec_t_ = type { i32, i32, ptr }

; Function Attrs: inlinehint nounwind uwtable
define internal ptr @Vec_WecEntry(ptr noundef %0, i32 noundef %1) #3 {
  %3 = alloca ptr, align 8
  %4 = alloca i32, align 4
  store ptr %0, ptr %3, align 8, !tbaa !80
  store i32 %1, ptr %4, align 4, !tbaa !3
  %5 = load ptr, ptr %3, align 8, !tbaa !80
  %6 = getelementptr inbounds nuw %struct.Vec_Wec_t_, ptr %5, i32 0, i32 2
  %7 = load ptr, ptr %6, align 8, !tbaa !85
  %8 = load i32, ptr %4, align 4, !tbaa !3
  %9 = sext i32 %8 to i64
  %10 = getelementptr inbounds %struct.Vec_Int_t_, ptr %7, i64 %9
  ret ptr %10
}

; Function Attrs: inlinehint nounwind uwtable
define internal i32 @Vec_WecSize(ptr noundef %0) #3 {
  %2 = alloca ptr, align 8
  store ptr %0, ptr %2, align 8, !tbaa !80
  %3 = load ptr, ptr %2, align 8, !tbaa !80
  %4 = getelementptr inbounds nuw %struct.Vec_Wec_t_, ptr %3, i32 0, i32 1
  %5 = load i32, ptr %4, align 4, !tbaa !83
  ret i32 %5
}

; Function Attrs: nounwind uwtable
define i32 @Mop_ManMergeContainAll(ptr noundef %0, ptr noundef %1) #0 {
  %3 = alloca ptr, align 8
  %4 = alloca ptr, align 8
  %5 = alloca ptr, align 8
  %6 = alloca ptr, align 8
  %7 = alloca i32, align 4
  %8 = alloca i32, align 4
  %9 = alloca i32, align 4
  store ptr %0, ptr %3, align 8, !tbaa !7
  store ptr %1, ptr %4, align 8, !tbaa !80
  call void @llvm.lifetime.start.p0(i64 8, ptr %5) #13
  call void @llvm.lifetime.start.p0(i64 8, ptr %6) #13
  call void @llvm.lifetime.start.p0(i64 4, ptr %7) #13
  call void @llvm.lifetime.start.p0(i64 4, ptr %8) #13
  call void @llvm.lifetime.start.p0(i64 4, ptr %9) #13
  store i32 0, ptr %9, align 4, !tbaa !3
  store i32 0, ptr %7, align 4, !tbaa !3
  br label %10

10:                                               ; preds = %51, %2
  %11 = load i32, ptr %7, align 4, !tbaa !3
  %12 = load ptr, ptr %4, align 8, !tbaa !80
  %13 = call i32 @Vec_WecSize(ptr noundef %12)
  %14 = icmp slt i32 %11, %13
  br i1 %14, label %15, label %19

15:                                               ; preds = %10
  %16 = load ptr, ptr %4, align 8, !tbaa !80
  %17 = load i32, ptr %7, align 4, !tbaa !3
  %18 = call ptr @Vec_WecEntry(ptr noundef %16, i32 noundef %17)
  store ptr %18, ptr %5, align 8, !tbaa !26
  br label %19

19:                                               ; preds = %15, %10
  %20 = phi i1 [ false, %10 ], [ true, %15 ]
  br i1 %20, label %21, label %54

21:                                               ; preds = %19
  %22 = load ptr, ptr %3, align 8, !tbaa !7
  %23 = load ptr, ptr %5, align 8, !tbaa !26
  %24 = call i32 @Mop_ManRemoveIdentical(ptr noundef %22, ptr noundef %23)
  %25 = load i32, ptr %9, align 4, !tbaa !3
  %26 = add nsw i32 %25, %24
  store i32 %26, ptr %9, align 4, !tbaa !3
  %27 = load i32, ptr %7, align 4, !tbaa !3
  %28 = add nsw i32 %27, 1
  store i32 %28, ptr %8, align 4, !tbaa !3
  br label %29

29:                                               ; preds = %47, %21
  %30 = load i32, ptr %8, align 4, !tbaa !3
  %31 = load ptr, ptr %4, align 8, !tbaa !80
  %32 = call i32 @Vec_WecSize(ptr noundef %31)
  %33 = icmp slt i32 %30, %32
  br i1 %33, label %34, label %38

34:                                               ; preds = %29
  %35 = load ptr, ptr %4, align 8, !tbaa !80
  %36 = load i32, ptr %8, align 4, !tbaa !3
  %37 = call ptr @Vec_WecEntry(ptr noundef %35, i32 noundef %36)
  store ptr %37, ptr %6, align 8, !tbaa !26
  br label %38

38:                                               ; preds = %34, %29
  %39 = phi i1 [ false, %29 ], [ true, %34 ]
  br i1 %39, label %40, label %50

40:                                               ; preds = %38
  %41 = load ptr, ptr %3, align 8, !tbaa !7
  %42 = load ptr, ptr %5, align 8, !tbaa !26
  %43 = load ptr, ptr %6, align 8, !tbaa !26
  %44 = call i32 @Mop_ManMergeContainTwo(ptr noundef %41, ptr noundef %42, ptr noundef %43)
  %45 = load i32, ptr %9, align 4, !tbaa !3
  %46 = add nsw i32 %45, %44
  store i32 %46, ptr %9, align 4, !tbaa !3
  br label %47

47:                                               ; preds = %40
  %48 = load i32, ptr %8, align 4, !tbaa !3
  %49 = add nsw i32 %48, 1
  store i32 %49, ptr %8, align 4, !tbaa !3
  br label %29, !llvm.loop !90

50:                                               ; preds = %38
  br label %51

51:                                               ; preds = %50
  %52 = load i32, ptr %7, align 4, !tbaa !3
  %53 = add nsw i32 %52, 1
  store i32 %53, ptr %7, align 4, !tbaa !3
  br label %10, !llvm.loop !91

54:                                               ; preds = %19
  %55 = load i32, ptr %9, align 4, !tbaa !3
  call void @llvm.lifetime.end.p0(i64 4, ptr %9) #13
  call void @llvm.lifetime.end.p0(i64 4, ptr %8) #13
  call void @llvm.lifetime.end.p0(i64 4, ptr %7) #13
  call void @llvm.lifetime.end.p0(i64 8, ptr %6) #13
  call void @llvm.lifetime.end.p0(i64 8, ptr %5) #13
  ret i32 %55
}