; Function Attrs: nounwind uwtable
define i32 @Mop_ManMergeContainAll(ptr noundef readonly captures(none) %0, ptr noundef readonly captures(none) %1) local_unnamed_addr #5 {
  %3 = getelementptr i8, ptr %1, i64 4
  %.val2228 = load i32, ptr %3, align 4, !tbaa !77
  %4 = icmp sgt i32 %.val2228, 0
  br i1 %4, label %.lr.ph31, label %.critedge

.lr.ph31:                                         ; preds = %2
  %5 = getelementptr i8, ptr %1, i64 8
  br label %7

.critedge2.loopexit.loopexit:                     ; preds = %.lr.ph
  %.pre = sext i32 %.val to i64
  br label %.critedge2.loopexit

.critedge2.loopexit:                              ; preds = %.critedge2.loopexit.loopexit, %7
  %.pre-phi = phi i64 [ %.pre, %.critedge2.loopexit.loopexit ], [ %11, %7 ]
  %.1.lcssa = phi i32 [ %15, %.critedge2.loopexit.loopexit ], [ %10, %7 ]
  %6 = icmp slt i64 %indvars.iv.next37, %.pre-phi
  %indvars.iv.next = add nuw nsw i64 %indvars.iv, 1
  br i1 %6, label %7, label %.critedge, !llvm.loop !85

7:                                                ; preds = %.lr.ph31, %.critedge2.loopexit
  %indvars.iv36 = phi i64 [ 0, %.lr.ph31 ], [ %indvars.iv.next37, %.critedge2.loopexit ]
  %indvars.iv = phi i64 [ 1, %.lr.ph31 ], [ %indvars.iv.next, %.critedge2.loopexit ]
  %.030 = phi i32 [ 0, %.lr.ph31 ], [ %.1.lcssa, %.critedge2.loopexit ]
  %.val24 = load ptr, ptr %5, align 8, !tbaa !79
  %8 = getelementptr inbounds nuw %struct.Vec_Int_t_, ptr %.val24, i64 %indvars.iv36
  %9 = tail call i32 @Mop_ManRemoveIdentical(ptr noundef %0, ptr noundef %8)
  %10 = add nsw i32 %9, %.030
  %indvars.iv.next37 = add nuw nsw i64 %indvars.iv36, 1
  %.val25 = load i32, ptr %3, align 4, !tbaa !77
  %11 = sext i32 %.val25 to i64
  %12 = icmp slt i64 %indvars.iv.next37, %11
  br i1 %12, label %.lr.ph, label %.critedge2.loopexit

.lr.ph:                                           ; preds = %7, %.lr.ph
  %indvars.iv33 = phi i64 [ %indvars.iv.next34, %.lr.ph ], [ %indvars.iv, %7 ]
  %.127 = phi i32 [ %15, %.lr.ph ], [ %10, %7 ]
  %.val23 = load ptr, ptr %5, align 8, !tbaa !79
  %13 = getelementptr inbounds nuw %struct.Vec_Int_t_, ptr %.val23, i64 %indvars.iv33
  %14 = tail call i32 @Mop_ManMergeContainTwo(ptr noundef %0, ptr noundef %8, ptr noundef nonnull %13)
  %15 = add nsw i32 %14, %.127
  %indvars.iv.next34 = add nuw nsw i64 %indvars.iv33, 1
  %.val = load i32, ptr %3, align 4, !tbaa !77
  %16 = trunc nuw i64 %indvars.iv.next34 to i32
  %17 = icmp sgt i32 %.val, %16
  br i1 %17, label %.lr.ph, label %.critedge2.loopexit.loopexit, !llvm.loop !86

.critedge:                                        ; preds = %.critedge2.loopexit, %2
  %.0.lcssa = phi i32 [ 0, %2 ], [ %.1.lcssa, %.critedge2.loopexit ]
  ret i32 %.0.lcssa
}